; Function Attrs: mustprogress nounwind uwtable
define void @_ZN3zmq8timers_tD2Ev(ptr noundef nonnull align 8 dereferenceable(120) initializes((0, 4)) %0) unnamed_addr #2 align 2 personality ptr @__gxx_personality_v0 {
  store i32 -559038737, ptr %0, align 8, !tbaa !3
  %2 = getelementptr inbounds nuw i8, ptr %0, i64 72
  %3 = getelementptr inbounds nuw i8, ptr %0, i64 88
  %4 = load ptr, ptr %3, align 8, !tbaa !27
  invoke void @_ZNSt8_Rb_treeIiiSt9_IdentityIiESt4lessIiESaIiEE8_M_eraseEPSt13_Rb_tree_nodeIiE(ptr noundef nonnull align 8 dereferenceable(48) %2, ptr noundef %4)
          to label %_ZNSt3setIiSt4lessIiESaIiEED2Ev.exit unwind label %5

5:                                                ; preds = %1
  %6 = landingpad { ptr, i32 }
          catch ptr null
  %7 = extractvalue { ptr, i32 } %6, 0
  tail call void @__clang_call_terminate(ptr %7) #14
  unreachable

_ZNSt3setIiSt4lessIiESaIiEED2Ev.exit:             ; preds = %1
  %8 = getelementptr inbounds nuw i8, ptr %0, i64 24
  %9 = getelementptr inbounds nuw i8, ptr %0, i64 40
  %10 = load ptr, ptr %9, align 8, !tbaa !27
  invoke void @_ZNSt8_Rb_treeImSt4pairIKmN3zmq8timers_t7timer_tEESt10_Select1stIS5_ESt4lessImESaIS5_EE8_M_eraseEPSt13_Rb_tree_nodeIS5_E(ptr noundef nonnull align 8 dereferenceable(48) %8, ptr noundef %10)
          to label %_ZNSt8multimapImN3zmq8timers_t7timer_tESt4lessImESaISt4pairIKmS2_EEED2Ev.exit unwind label %11

11:                                               ; preds = %_ZNSt3setIiSt4lessIiESaIiEED2Ev.exit
  %12 = landingpad { ptr, i32 }
          catch ptr null
  %13 = extractvalue { ptr, i32 } %12, 0
  tail call void @__clang_call_terminate(ptr %13) #14
  unreachable

_ZNSt8multimapImN3zmq8timers_t7timer_tESt4lessImESaISt4pairIKmS2_EEED2Ev.exit: ; preds = %_ZNSt3setIiSt4lessIiESaIiEED2Ev.exit
  ret void
}